; ModuleID = 'source-C-CXX/35/719.c'
source_filename = "source-C-CXX/35/719.c"
target datalayout = "e-m:e-p270:32:32-p271:32:32-p272:64:64-i64:64-f80:128-n8:16:32:64-S128"
target triple = "x86_64-pc-linux-gnu"

@.str = private unnamed_addr constant [6 x i8] c"%s %s\00", align 1
@.str.1 = private unnamed_addr constant [3 x i8] c"NO\00", align 1
@.str.2 = private unnamed_addr constant [4 x i8] c"YES\00", align 1

; Function Attrs: nofree nounwind sspstrong uwtable
define dso_local void @main() local_unnamed_addr #0 {
  %1 = alloca [100 x i32], align 16
  %2 = alloca [100 x i8], align 16
  %3 = alloca [100 x i8], align 16
  %4 = bitcast [100 x i32]* %1 to i8*
  call void @llvm.lifetime.start.p0i8(i64 400, i8* nonnull %4) #4
  %5 = getelementptr inbounds [100 x i8], [100 x i8]* %2, i64 0, i64 0
  call void @llvm.lifetime.start.p0i8(i64 100, i8* nonnull %5) #4
  %6 = getelementptr inbounds [100 x i8], [100 x i8]* %3, i64 0, i64 0
  call void @llvm.lifetime.start.p0i8(i64 100, i8* nonnull %6) #4
  %7 = call i32 (i8*, ...) @__isoc99_scanf(i8* getelementptr inbounds ([6 x i8], [6 x i8]* @.str, i64 0, i64 0), i8* nonnull %5, i8* nonnull %6)
  %8 = call i64 @strlen(i8* noundef nonnull %5) #5
  %9 = trunc i64 %8 to i32
  %10 = call i64 @strlen(i8* noundef nonnull %6) #5
  %11 = trunc i64 %10 to i32
  %12 = icmp sgt i32 %9, 0
  br i1 %12, label %13, label %38

13:                                               ; preds = %0
  %14 = and i64 %8, 4294967295
  %15 = icmp ult i64 %14, 8
  br i1 %15, label %29, label %16

16:                                               ; preds = %13
  %17 = and i64 %8, 7
  %18 = sub nsw i64 %14, %17
  br label %19

19:                                               ; preds = %19, %16
  %20 = phi i64 [ 0, %16 ], [ %25, %19 ]
  %21 = getelementptr inbounds [100 x i32], [100 x i32]* %1, i64 0, i64 %20
  %22 = bitcast i32* %21 to <4 x i32>*
  store <4 x i32> <i32 1, i32 1, i32 1, i32 1>, <4 x i32>* %22, align 16, !tbaa !5
  %23 = getelementptr inbounds i32, i32* %21, i64 4
  %24 = bitcast i32* %23 to <4 x i32>*
  store <4 x i32> <i32 1, i32 1, i32 1, i32 1>, <4 x i32>* %24, align 16, !tbaa !5
  %25 = add nuw i64 %20, 8
  %26 = icmp eq i64 %25, %18
  br i1 %26, label %27, label %19, !llvm.loop !9

27:                                               ; preds = %19
  %28 = icmp eq i64 %17, 0
  br i1 %28, label %36, label %29

29:                                               ; preds = %13, %27
  %30 = phi i64 [ 0, %13 ], [ %18, %27 ]
  br label %31

31:                                               ; preds = %29, %31
  %32 = phi i64 [ %34, %31 ], [ %30, %29 ]
  %33 = getelementptr inbounds [100 x i32], [100 x i32]* %1, i64 0, i64 %32
  store i32 1, i32* %33, align 4, !tbaa !5
  %34 = add nuw nsw i64 %32, 1
  %35 = icmp eq i64 %34, %14
  br i1 %35, label %36, label %31, !llvm.loop !12

36:                                               ; preds = %31, %27
  %37 = icmp eq i32 %9, %11
  br i1 %37, label %40, label %74

38:                                               ; preds = %0
  %39 = icmp eq i32 %9, %11
  br i1 %39, label %70, label %74

40:                                               ; preds = %36
  br i1 %12, label %41, label %70

41:                                               ; preds = %40
  %42 = and i64 %8, 4294967295
  br label %43

43:                                               ; preds = %41, %65
  %44 = phi i32 [ %67, %65 ], [ 0, %41 ]
  %45 = phi i32 [ %68, %65 ], [ 0, %41 ]
  %46 = sext i32 %45 to i64
  %47 = getelementptr inbounds [100 x i8], [100 x i8]* %2, i64 0, i64 %46
  %48 = load i8, i8* %47, align 1, !tbaa !14
  br label %49

49:                                               ; preds = %43, %58
  %50 = phi i64 [ 0, %43 ], [ %59, %58 ]
  %51 = getelementptr inbounds [100 x i8], [100 x i8]* %3, i64 0, i64 %50
  %52 = load i8, i8* %51, align 1, !tbaa !14
  %53 = icmp eq i8 %48, %52
  br i1 %53, label %54, label %58

54:                                               ; preds = %49
  %55 = getelementptr inbounds [100 x i32], [100 x i32]* %1, i64 0, i64 %50
  %56 = load i32, i32* %55, align 4, !tbaa !5
  %57 = icmp eq i32 %56, 1
  br i1 %57, label %61, label %58

58:                                               ; preds = %54, %49
  %59 = add nuw nsw i64 %50, 1
  %60 = icmp eq i64 %59, %42
  br i1 %60, label %65, label %49, !llvm.loop !15

61:                                               ; preds = %54
  %62 = and i64 %50, 4294967295
  %63 = getelementptr inbounds [100 x i32], [100 x i32]* %1, i64 0, i64 %62
  %64 = add nsw i32 %44, 1
  store i32 0, i32* %63, align 4, !tbaa !5
  br label %65

65:                                               ; preds = %58, %61
  %66 = phi i32 [ %45, %61 ], [ %9, %58 ]
  %67 = phi i32 [ %64, %61 ], [ %44, %58 ]
  %68 = add nsw i32 %66, 1
  %69 = icmp slt i32 %68, %9
  br i1 %69, label %43, label %70, !llvm.loop !16

70:                                               ; preds = %65, %38, %40
  %71 = phi i32 [ 0, %40 ], [ 0, %38 ], [ %67, %65 ]
  %72 = icmp eq i32 %71, %9
  %73 = select i1 %72, i8* getelementptr inbounds ([4 x i8], [4 x i8]* @.str.2, i64 0, i64 0), i8* getelementptr inbounds ([3 x i8], [3 x i8]* @.str.1, i64 0, i64 0)
  br label %74

74:                                               ; preds = %70, %36, %38
  %75 = phi i8* [ getelementptr inbounds ([3 x i8], [3 x i8]* @.str.1, i64 0, i64 0), %38 ], [ getelementptr inbounds ([3 x i8], [3 x i8]* @.str.1, i64 0, i64 0), %36 ], [ %73, %70 ]
  %76 = call i32 (i8*, ...) @printf(i8* nonnull dereferenceable(1) %75)
  call void @llvm.lifetime.end.p0i8(i64 100, i8* nonnull %6) #4
  call void @llvm.lifetime.end.p0i8(i64 100, i8* nonnull %5) #4
  call void @llvm.lifetime.end.p0i8(i64 400, i8* nonnull %4) #4
  ret void
}

; Function Attrs: argmemonly mustprogress nofree nosync nounwind willreturn
declare void @llvm.lifetime.start.p0i8(i64 immarg, i8* nocapture) #1

; Function Attrs: nofree nounwind
declare noundef i32 @__isoc99_scanf(i8* nocapture noundef readonly, ...) local_unnamed_addr #2

; Function Attrs: argmemonly mustprogress nofree nounwind readonly willreturn
declare i64 @strlen(i8* nocapture) local_unnamed_addr #3

; Function Attrs: nofree nounwind
declare noundef i32 @printf(i8* nocapture noundef readonly, ...) local_unnamed_addr #2

; Function Attrs: argmemonly mustprogress nofree nosync nounwind willreturn
declare void @llvm.lifetime.end.p0i8(i64 immarg, i8* nocapture) #1


!llvm.module.flags = !{!0, !1, !2, !3}
!llvm.ident = !{!4}

!0 = !{i32 1, !"wchar_size", i32 4}
!1 = !{i32 7, !"PIC Level", i32 2}
!2 = !{i32 7, !"PIE Level", i32 2}
!3 = !{i32 7, !"uwtable", i32 1}
!4 = !{!"clang version 13.0.0"}
!5 = !{!6, !6, i64 0}
!6 = !{!"int", !7, i64 0}
!7 = !{!"omnipotent char", !8, i64 0}
!8 = !{!"Simple C/C++ TBAA"}
!9 = distinct !{!9, !10, !11}
!10 = !{!"llvm.loop.mustprogress"}
!11 = !{!"llvm.loop.isvectorized", i32 1}
!12 = distinct !{!12, !10, !13, !11}
!13 = !{!"llvm.loop.unroll.runtime.disable"}
!14 = !{!7, !7, i64 0}
!15 = distinct !{!15, !10}
!16 = distinct !{!16, !10}
